target datalayout = "e-m:e-p270:32:32-p271:32:32-p272:64:64-i64:64-i128:128-f80:128-n8:16:32:64-S128"
target triple = "x86_64-pc-linux-gnu"

%"class.llvm::ArrayRef" = type { ptr, i64 }
%"class.llvm::Error" = type { ptr }

; Function Attrs: mustprogress nounwind uwtable
define dso_local void @_ZN4llvm11compression10decompressENS0_6FormatENS_8ArrayRefIhEERNS_15SmallVectorImplIhEEm(ptr dead_on_unwind noalias writable sret(%"class.llvm::Error") align 8 %0, i32 noundef %1, ptr %2, i64 %3, ptr noundef nonnull align 8 dereferenceable(24) %4, i64 noundef %5) #0 {
  %7 = alloca ptr, align 8
  %8 = alloca %"class.llvm::ArrayRef", align 8
  %9 = alloca i32, align 4
  %10 = alloca ptr, align 8
  %11 = alloca i64, align 8
  %12 = alloca %"class.llvm::ArrayRef", align 8
  %13 = alloca %"class.llvm::ArrayRef", align 8
  store ptr %0, ptr %7, align 8
  %14 = getelementptr inbounds nuw { ptr, i64 }, ptr %8, i32 0, i32 0
  store ptr %2, ptr %14, align 8
  %15 = getelementptr inbounds nuw { ptr, i64 }, ptr %8, i32 0, i32 1
  store i64 %3, ptr %15, align 8
  store i32 %1, ptr %9, align 4
  store ptr %4, ptr %10, align 8
  store i64 %5, ptr %11, align 8
  %16 = load i32, ptr %9, align 4
  switch i32 %16, label %31 [
    i32 0, label %17
    i32 1, label %24
  ]

17:                                               ; preds = %6
  call void @llvm.memcpy.p0.p0.i64(ptr align 8 %12, ptr align 8 %8, i64 16, i1 false)
  %18 = load ptr, ptr %10, align 8
  %19 = load i64, ptr %11, align 8
  %20 = getelementptr inbounds nuw { ptr, i64 }, ptr %12, i32 0, i32 0
  %21 = load ptr, ptr %20, align 8
  %22 = getelementptr inbounds nuw { ptr, i64 }, ptr %12, i32 0, i32 1
  %23 = load i64, ptr %22, align 8
  call void @_ZN4llvm11compression4zlib10decompressENS_8ArrayRefIhEERNS_15SmallVectorImplIhEEm(ptr dead_on_unwind writable sret(%"class.llvm::Error") align 8 %0, ptr %21, i64 %23, ptr noundef nonnull align 8 dereferenceable(24) %18, i64 noundef %19)
  br label %32

24:                                               ; preds = %6
  call void @llvm.memcpy.p0.p0.i64(ptr align 8 %13, ptr align 8 %8, i64 16, i1 false)
  %25 = load ptr, ptr %10, align 8
  %26 = load i64, ptr %11, align 8
  %27 = getelementptr inbounds nuw { ptr, i64 }, ptr %13, i32 0, i32 0
  %28 = load ptr, ptr %27, align 8
  %29 = getelementptr inbounds nuw { ptr, i64 }, ptr %13, i32 0, i32 1
  %30 = load i64, ptr %29, align 8
  call void @_ZN4llvm11compression4zstd10decompressENS_8ArrayRefIhEERNS_15SmallVectorImplIhEEm(ptr dead_on_unwind writable sret(%"class.llvm::Error") align 8 %0, ptr %28, i64 %30, ptr noundef nonnull align 8 dereferenceable(24) %25, i64 noundef %26)
  br label %32

31:                                               ; preds = %6
  unreachable

32:                                               ; preds = %24, %17
  ret void
}