; Function Attrs: mustprogress nounwind uwtable
define dso_local void @_ZN4llvm11compression10decompressENS0_6FormatENS_8ArrayRefIhEERNS_15SmallVectorImplIhEEm(ptr dead_on_unwind noalias nocapture writable writeonly sret(%"class.llvm::Error") align 8 %0, i32 noundef %1, ptr %2, i64 %3, ptr noundef nonnull align 8 dereferenceable(24) %4, i64 noundef %5) local_unnamed_addr #1 {
  %switch = icmp eq i32 %1, 0
  br i1 %switch, label %7, label %8

7:                                                ; preds = %6
  tail call void @_ZN4llvm11compression4zlib10decompressENS_8ArrayRefIhEERNS_15SmallVectorImplIhEEm(ptr dead_on_unwind writable sret(%"class.llvm::Error") align 8 %0, ptr %2, i64 %3, ptr noundef nonnull align 8 dereferenceable(24) %4, i64 noundef %5)
  br label %9

8:                                                ; preds = %6
  tail call void @_ZN4llvm11compression4zstd10decompressENS_8ArrayRefIhEERNS_15SmallVectorImplIhEEm(ptr dead_on_unwind writable sret(%"class.llvm::Error") align 8 %0, ptr %2, i64 %3, ptr noundef nonnull align 8 dereferenceable(24) %4, i64 noundef %5)
  br label %9

9:                                                ; preds = %8, %7
  ret void
}